target datalayout = "e-m:e-p270:32:32-p271:32:32-p272:64:64-i64:64-i128:128-f80:128-n8:16:32:64-S128"
target triple = "x86_64-pc-linux-gnu"

%"class.dpx::ElementReadStream" = type { ptr, ptr }
%"struct.dpx::GenericHeader" = type { i32, i32, [8 x i8], i32, i32, i32, i32, i32, [100 x i8], [24 x i8], [100 x i8], [200 x i8], [200 x i8], i32, [104 x i8], i16, i16, i32, i32, [8 x %"struct.dpx::ImageElement"], [52 x i8], i32, i32, float, float, i32, i32, [100 x i8], [24 x i8], [32 x i8], [32 x i8], [4 x i16], [2 x i32], float, float, [20 x i8] }
%"struct.dpx::ImageElement" = type { i32, i32, float, i32, float, i8, i8, i8, i8, i16, i16, i32, i32, i32, [32 x i8] }

; Function Attrs: inlinehint mustprogress nounwind uwtable
define linkonce_odr hidden noundef i32 @_ZNK3dpx13GenericHeader10DataOffsetEi(ptr noundef nonnull align 4 dereferenceable(1664) %0, i32 noundef %1) #8 comdat align 2 {
  %3 = alloca i32, align 4
  %4 = alloca ptr, align 8
  %5 = alloca i32, align 4
  store ptr %0, ptr %4, align 8, !tbaa !21
  store i32 %1, ptr %5, align 4, !tbaa !16
  %6 = load ptr, ptr %4, align 8
  %7 = load i32, ptr %5, align 4, !tbaa !16
  %8 = icmp slt i32 %7, 0
  br i1 %8, label %12, label %9

9:                                                ; preds = %2
  %10 = load i32, ptr %5, align 4, !tbaa !16
  %11 = icmp sge i32 %10, 8
  br i1 %11, label %12, label %13

12:                                               ; preds = %9, %2
  store i32 -1, ptr %3, align 4
  br label %20

13:                                               ; preds = %9
  %14 = getelementptr inbounds nuw %"struct.dpx::GenericHeader", ptr %6, i32 0, i32 19
  %15 = load i32, ptr %5, align 4, !tbaa !16
  %16 = sext i32 %15 to i64
  %17 = getelementptr inbounds [8 x %"struct.dpx::ImageElement"], ptr %14, i64 0, i64 %16
  %18 = getelementptr inbounds nuw %"struct.dpx::ImageElement", ptr %17, i32 0, i32 11
  %19 = load i32, ptr %18, align 4, !tbaa !23
  store i32 %19, ptr %3, align 4
  br label %20

20:                                               ; preds = %13, %12
  %21 = load i32, ptr %3, align 4
  ret i32 %21
}

; Function Attrs: mustprogress uwtable
define hidden noundef zeroext i1 @_ZN3dpx17ElementReadStream10ReadDirectERKNS_6HeaderEilPvm(ptr noundef nonnull align 8 dereferenceable(16) %0, ptr noundef nonnull align 4 dereferenceable(2049) %1, i32 noundef %2, i64 noundef %3, ptr noundef %4, i64 noundef %5) unnamed_addr #6 align 2 {
  %7 = alloca i1, align 1
  %8 = alloca ptr, align 8
  %9 = alloca ptr, align 8
  %10 = alloca i32, align 4
  %11 = alloca i64, align 8
  %12 = alloca ptr, align 8
  %13 = alloca i64, align 8
  %14 = alloca i64, align 8
  %15 = alloca i32, align 4
  store ptr %0, ptr %8, align 8, !tbaa !3
  store ptr %1, ptr %9, align 8, !tbaa !14
  store i32 %2, ptr %10, align 4, !tbaa !16
  store i64 %3, ptr %11, align 8, !tbaa !18
  store ptr %4, ptr %12, align 8, !tbaa !20
  store i64 %5, ptr %13, align 8, !tbaa !18
  %16 = load ptr, ptr %8, align 8
  call void @llvm.lifetime.start.p0(i64 8, ptr %14) #4
  %17 = load ptr, ptr %9, align 8, !tbaa !14
  %18 = load i32, ptr %10, align 4, !tbaa !16
  %19 = call noundef i32 @_ZNK3dpx13GenericHeader10DataOffsetEi(ptr noundef nonnull align 4 dereferenceable(1664) %17, i32 noundef %18)
  %20 = zext i32 %19 to i64
  %21 = load i64, ptr %11, align 8, !tbaa !18
  %22 = add nsw i64 %20, %21
  store i64 %22, ptr %14, align 8, !tbaa !18
  %23 = getelementptr inbounds nuw %"class.dpx::ElementReadStream", ptr %16, i32 0, i32 1
  %24 = load ptr, ptr %23, align 8, !tbaa !12
  %25 = load i64, ptr %14, align 8, !tbaa !18
  %26 = load ptr, ptr %24, align 8, !tbaa !10
  %27 = getelementptr inbounds ptr, ptr %26, i64 6
  %28 = load ptr, ptr %27, align 8
  %29 = call noundef zeroext i1 %28(ptr noundef nonnull align 8 dereferenceable(16) %24, i64 noundef %25, i32 noundef 0)
  %30 = zext i1 %29 to i32
  %31 = icmp eq i32 %30, 0
  br i1 %31, label %32, label %33

32:                                               ; preds = %6
  store i1 false, ptr %7, align 1
  store i32 1, ptr %15, align 4
  br label %50

33:                                               ; preds = %6
  %34 = getelementptr inbounds nuw %"class.dpx::ElementReadStream", ptr %16, i32 0, i32 1
  %35 = load ptr, ptr %34, align 8, !tbaa !12
  %36 = load ptr, ptr %12, align 8, !tbaa !20
  %37 = load i64, ptr %13, align 8, !tbaa !18
  %38 = load ptr, ptr %35, align 8, !tbaa !10
  %39 = getelementptr inbounds ptr, ptr %38, i64 4
  %40 = load ptr, ptr %39, align 8
  %41 = call noundef i64 %40(ptr noundef nonnull align 8 dereferenceable(16) %35, ptr noundef %36, i64 noundef %37)
  %42 = load i64, ptr %13, align 8, !tbaa !18
  %43 = icmp ne i64 %41, %42
  br i1 %43, label %44, label %45

44:                                               ; preds = %33
  store i1 false, ptr %7, align 1
  store i32 1, ptr %15, align 4
  br label %50

45:                                               ; preds = %33
  %46 = load ptr, ptr %9, align 8, !tbaa !14
  %47 = load i32, ptr %10, align 4, !tbaa !16
  %48 = load ptr, ptr %12, align 8, !tbaa !20
  %49 = load i64, ptr %13, align 8, !tbaa !18
  call void @_ZN3dpx17ElementReadStream15EndianDataCheckERKNS_6HeaderEiPvm(ptr noundef nonnull align 8 dereferenceable(16) %16, ptr noundef nonnull align 4 dereferenceable(2049) %46, i32 noundef %47, ptr noundef %48, i64 noundef %49)
  store i1 true, ptr %7, align 1
  store i32 1, ptr %15, align 4
  br label %50

50:                                               ; preds = %45, %44, %32
  call void @llvm.lifetime.end.p0(i64 8, ptr %14) #4
  %51 = load i1, ptr %7, align 1
  ret i1 %51
}